target datalayout = "e-m:e-p270:32:32-p271:32:32-p272:64:64-i64:64-i128:128-f80:128-n8:16:32:64-S128"
target triple = "x86_64-pc-linux-gnu"

%struct.evp_md_st = type { i32, i32, i32, i64, i32, ptr, ptr, ptr, ptr, ptr, i32, i32, ptr, i32, ptr, ptr, ptr, %struct.CRYPTO_REF_COUNT, ptr, ptr, ptr, ptr, ptr, ptr, ptr, ptr, ptr, ptr, ptr, ptr, ptr, ptr, ptr }
%struct.CRYPTO_REF_COUNT = type { i32 }

; Function Attrs: nounwind uwtable
define ptr @EVP_MD_gettable_ctx_params(ptr noundef %0) #0 {
  %2 = alloca ptr, align 8
  %3 = alloca ptr, align 8
  %4 = alloca ptr, align 8
  %5 = alloca i32, align 4
  store ptr %0, ptr %3, align 8, !tbaa !28
  call void @llvm.lifetime.start.p0(i64 8, ptr %4) #8
  %6 = load ptr, ptr %3, align 8, !tbaa !28
  %7 = icmp ne ptr %6, null
  br i1 %7, label %8, label %22

8:                                                ; preds = %1
  %9 = load ptr, ptr %3, align 8, !tbaa !28
  %10 = getelementptr inbounds nuw %struct.evp_md_st, ptr %9, i32 0, i32 32
  %11 = load ptr, ptr %10, align 8, !tbaa !85
  %12 = icmp ne ptr %11, null
  br i1 %12, label %13, label %22

13:                                               ; preds = %8
  %14 = load ptr, ptr %3, align 8, !tbaa !28
  %15 = call ptr @EVP_MD_get0_provider(ptr noundef %14)
  %16 = call ptr @ossl_provider_ctx(ptr noundef %15)
  store ptr %16, ptr %4, align 8, !tbaa !61
  %17 = load ptr, ptr %3, align 8, !tbaa !28
  %18 = getelementptr inbounds nuw %struct.evp_md_st, ptr %17, i32 0, i32 32
  %19 = load ptr, ptr %18, align 8, !tbaa !85
  %20 = load ptr, ptr %4, align 8, !tbaa !61
  %21 = call ptr %19(ptr noundef null, ptr noundef %20)
  store ptr %21, ptr %2, align 8
  store i32 1, ptr %5, align 4
  br label %23

22:                                               ; preds = %8, %1
  store ptr null, ptr %2, align 8
  store i32 1, ptr %5, align 4
  br label %23

23:                                               ; preds = %22, %13
  call void @llvm.lifetime.end.p0(i64 8, ptr %4) #8
  %24 = load ptr, ptr %2, align 8
  ret ptr %24
}